target datalayout = "e-m:e-p270:32:32-p271:32:32-p272:64:64-i64:64-i128:128-f80:128-n8:16:32:64-S128"
target triple = "x86_64-pc-linux-gnu"

; Function Attrs: null_pointer_is_valid sspstrong uwtable
define i32 @oid_encoded2subid_sub(ptr noundef %0, ptr noundef %1, i32 noundef %2, ptr noundef %3, i1 noundef zeroext %4) #0 {
  %6 = alloca i32, align 4
  %7 = alloca ptr, align 8
  %8 = alloca ptr, align 8
  %9 = alloca i32, align 4
  %10 = alloca ptr, align 8
  %11 = alloca i8, align 1
  %12 = alloca i32, align 4
  %13 = alloca i32, align 4
  %14 = alloca ptr, align 8
  %15 = alloca ptr, align 8
  %16 = alloca i64, align 8
  %17 = alloca i32, align 4
  %18 = alloca i8, align 1
  %19 = alloca i32, align 4
  store ptr %0, ptr %7, align 8
  store ptr %1, ptr %8, align 8
  store i32 %2, ptr %9, align 4
  store ptr %3, ptr %10, align 8
  %20 = zext i1 %4 to i8
  store i8 %20, ptr %11, align 1
  call void @llvm.lifetime.start.p0(i64 4, ptr %12) #6
  call void @llvm.lifetime.start.p0(i64 4, ptr %13) #6
  %21 = load i8, ptr %11, align 1, !range !9, !noundef !10
  %22 = trunc i8 %21 to i1
  %23 = select i1 %22, i32 1, i32 0
  store i32 %23, ptr %13, align 4
  call void @llvm.lifetime.start.p0(i64 8, ptr %14) #6
  call void @llvm.lifetime.start.p0(i64 8, ptr %15) #6
  call void @llvm.lifetime.start.p0(i64 8, ptr %16) #6
  store i64 0, ptr %16, align 8
  store i32 0, ptr %12, align 4
  br label %24

24:                                               ; preds = %41, %5
  %25 = load i32, ptr %12, align 4
  %26 = load i32, ptr %9, align 4
  %27 = icmp slt i32 %25, %26
  br i1 %27, label %28, label %44

28:                                               ; preds = %24
  %29 = load ptr, ptr %8, align 8
  %30 = load i32, ptr %12, align 4
  %31 = sext i32 %30 to i64
  %32 = getelementptr i8, ptr %29, i64 %31
  %33 = load i8, ptr %32, align 1
  %34 = zext i8 %33 to i32
  %35 = and i32 %34, 128
  %36 = icmp ne i32 %35, 0
  br i1 %36, label %40, label %37

37:                                               ; preds = %28
  %38 = load i32, ptr %13, align 4
  %39 = add i32 %38, 1
  store i32 %39, ptr %13, align 4
  br label %40

40:                                               ; preds = %37, %28
  br label %41

41:                                               ; preds = %40
  %42 = load i32, ptr %12, align 4
  %43 = add i32 %42, 1
  store i32 %43, ptr %12, align 4
  br label %24, !llvm.loop !13

44:                                               ; preds = %24
  %45 = load ptr, ptr %7, align 8
  %46 = load i32, ptr %13, align 4
  %47 = zext i32 %46 to i64
  %48 = mul i64 4, %47
  %49 = call noalias ptr @wmem_alloc(ptr noundef %45, i64 noundef %48) #7
  store ptr %49, ptr %14, align 8
  %50 = load ptr, ptr %10, align 8
  store ptr %49, ptr %50, align 8
  %51 = load ptr, ptr %14, align 8
  %52 = load i32, ptr %13, align 4
  %53 = zext i32 %52 to i64
  %54 = getelementptr i32, ptr %51, i64 %53
  store ptr %54, ptr %15, align 8
  %55 = load i8, ptr %11, align 1, !range !9, !noundef !10
  %56 = trunc i8 %55 to i1
  br i1 %56, label %57, label %63

57:                                               ; preds = %44
  %58 = load i32, ptr %13, align 4
  %59 = icmp eq i32 %58, 1
  br i1 %59, label %60, label %63

60:                                               ; preds = %57
  %61 = load ptr, ptr %14, align 8
  store i32 0, ptr %61, align 4
  %62 = load i32, ptr %13, align 4
  store i32 %62, ptr %6, align 4
  store i32 1, ptr %17, align 4
  br label %147

63:                                               ; preds = %57, %44
  %64 = load i8, ptr %11, align 1, !range !9, !noundef !10
  %65 = trunc i8 %64 to i1
  br i1 %65, label %71, label %66

66:                                               ; preds = %63
  %67 = load i32, ptr %13, align 4
  %68 = icmp eq i32 %67, 0
  br i1 %68, label %69, label %71

69:                                               ; preds = %66
  %70 = load i32, ptr %13, align 4
  store i32 %70, ptr %6, align 4
  store i32 1, ptr %17, align 4
  br label %147

71:                                               ; preds = %66, %63
  br label %72

72:                                               ; preds = %71
  store i32 0, ptr %12, align 4
  br label %73

73:                                               ; preds = %139, %72
  %74 = load i32, ptr %12, align 4
  %75 = load i32, ptr %9, align 4
  %76 = icmp slt i32 %74, %75
  br i1 %76, label %77, label %142

77:                                               ; preds = %73
  call void @llvm.lifetime.start.p0(i64 1, ptr %18) #6
  %78 = load ptr, ptr %8, align 8
  %79 = load i32, ptr %12, align 4
  %80 = sext i32 %79 to i64
  %81 = getelementptr i8, ptr %78, i64 %80
  %82 = load i8, ptr %81, align 1
  store i8 %82, ptr %18, align 1
  %83 = load i64, ptr %16, align 8
  %84 = shl i64 %83, 7
  store i64 %84, ptr %16, align 8
  %85 = load i8, ptr %18, align 1
  %86 = zext i8 %85 to i32
  %87 = and i32 %86, 127
  %88 = sext i32 %87 to i64
  %89 = load i64, ptr %16, align 8
  %90 = or i64 %89, %88
  store i64 %90, ptr %16, align 8
  %91 = load i8, ptr %18, align 1
  %92 = zext i8 %91 to i32
  %93 = and i32 %92, 128
  %94 = icmp ne i32 %93, 0
  br i1 %94, label %95, label %96

95:                                               ; preds = %77
  store i32 7, ptr %17, align 4
  br label %136

96:                                               ; preds = %77
  %97 = load i8, ptr %11, align 1, !range !9, !noundef !10
  %98 = trunc i8 %97 to i1
  br i1 %98, label %99, label %119

99:                                               ; preds = %96
  call void @llvm.lifetime.start.p0(i64 4, ptr %19) #6
  store i32 0, ptr %19, align 4
  %100 = load i64, ptr %16, align 8
  %101 = icmp uge i64 %100, 40
  br i1 %101, label %102, label %107

102:                                              ; preds = %99
  %103 = load i32, ptr %19, align 4
  %104 = add i32 %103, 1
  store i32 %104, ptr %19, align 4
  %105 = load i64, ptr %16, align 8
  %106 = sub i64 %105, 40
  store i64 %106, ptr %16, align 8
  br label %107

107:                                              ; preds = %102, %99
  %108 = load i64, ptr %16, align 8
  %109 = icmp uge i64 %108, 40
  br i1 %109, label %110, label %115

110:                                              ; preds = %107
  %111 = load i32, ptr %19, align 4
  %112 = add i32 %111, 1
  store i32 %112, ptr %19, align 4
  %113 = load i64, ptr %16, align 8
  %114 = sub i64 %113, 40
  store i64 %114, ptr %16, align 8
  br label %115

115:                                              ; preds = %110, %107
  %116 = load i32, ptr %19, align 4
  %117 = load ptr, ptr %14, align 8
  %118 = getelementptr i32, ptr %117, i32 1
  store ptr %118, ptr %14, align 8
  store i32 %116, ptr %117, align 4
  store i8 0, ptr %11, align 1
  call void @llvm.lifetime.end.p0(i64 4, ptr %19) #6
  br label %119

119:                                              ; preds = %115, %96
  %120 = load ptr, ptr %14, align 8
  %121 = load ptr, ptr %15, align 8
  %122 = icmp uge ptr %120, %121
  br i1 %122, label %126, label %123

123:                                              ; preds = %119
  %124 = load i64, ptr %16, align 8
  %125 = icmp ugt i64 %124, 4294967295
  br i1 %125, label %126, label %131

126:                                              ; preds = %123, %119
  %127 = load ptr, ptr %7, align 8
  %128 = load ptr, ptr %10, align 8
  %129 = load ptr, ptr %128, align 8
  call void @wmem_free(ptr noundef %127, ptr noundef %129)
  %130 = load ptr, ptr %10, align 8
  store ptr null, ptr %130, align 8
  store i32 0, ptr %6, align 4
  store i32 1, ptr %17, align 4
  br label %136

131:                                              ; preds = %123
  %132 = load i64, ptr %16, align 8
  %133 = trunc i64 %132 to i32
  %134 = load ptr, ptr %14, align 8
  %135 = getelementptr i32, ptr %134, i32 1
  store ptr %135, ptr %14, align 8
  store i32 %133, ptr %134, align 4
  store i64 0, ptr %16, align 8
  store i32 0, ptr %17, align 4
  br label %136

136:                                              ; preds = %131, %126, %95
  call void @llvm.lifetime.end.p0(i64 1, ptr %18) #6
  %137 = load i32, ptr %17, align 4
  switch i32 %137, label %147 [
    i32 0, label %138
    i32 7, label %139
  ]

138:                                              ; preds = %136
  br label %139

139:                                              ; preds = %138, %136
  %140 = load i32, ptr %12, align 4
  %141 = add i32 %140, 1
  store i32 %141, ptr %12, align 4
  br label %73, !llvm.loop !14

142:                                              ; preds = %73
  br label %143

143:                                              ; preds = %142
  br label %144

144:                                              ; preds = %143
  br label %145

145:                                              ; preds = %144
  %146 = load i32, ptr %13, align 4
  store i32 %146, ptr %6, align 4
  store i32 1, ptr %17, align 4
  br label %147

147:                                              ; preds = %145, %136, %69, %60
  call void @llvm.lifetime.end.p0(i64 8, ptr %16) #6
  call void @llvm.lifetime.end.p0(i64 8, ptr %15) #6
  call void @llvm.lifetime.end.p0(i64 8, ptr %14) #6
  call void @llvm.lifetime.end.p0(i64 4, ptr %13) #6
  call void @llvm.lifetime.end.p0(i64 4, ptr %12) #6
  %148 = load i32, ptr %6, align 4
  ret i32 %148
}

; Function Attrs: null_pointer_is_valid sspstrong uwtable
define ptr @rel_oid_resolved_from_encoded(ptr noundef %0, ptr noundef %1, i32 noundef %2) #0 {
  %4 = alloca ptr, align 8
  %5 = alloca ptr, align 8
  %6 = alloca i32, align 4
  %7 = alloca ptr, align 8
  %8 = alloca ptr, align 8
  %9 = alloca i32, align 4
  store ptr %0, ptr %4, align 8
  store ptr %1, ptr %5, align 8
  store i32 %2, ptr %6, align 4
  call void @llvm.lifetime.start.p0(i64 8, ptr %7) #6
  store ptr null, ptr %7, align 8
  call void @llvm.lifetime.start.p0(i64 8, ptr %8) #6
  call void @llvm.lifetime.start.p0(i64 4, ptr %9) #6
  %10 = load ptr, ptr %5, align 8
  %11 = load i32, ptr %6, align 4
  %12 = call i32 @oid_encoded2subid_sub(ptr noundef null, ptr noundef %10, i32 noundef %11, ptr noundef %7, i1 noundef zeroext false)
  store i32 %12, ptr %9, align 4
  %13 = load ptr, ptr %4, align 8
  %14 = load ptr, ptr %7, align 8
  %15 = load i32, ptr %9, align 4
  %16 = call ptr @rel_oid_subid2string(ptr noundef %13, ptr noundef %14, i32 noundef %15, i1 noundef zeroext false)
  store ptr %16, ptr %8, align 8
  %17 = load ptr, ptr %7, align 8
  call void @wmem_free(ptr noundef null, ptr noundef %17)
  %18 = load ptr, ptr %8, align 8
  call void @llvm.lifetime.end.p0(i64 4, ptr %9) #6
  call void @llvm.lifetime.end.p0(i64 8, ptr %8) #6
  call void @llvm.lifetime.end.p0(i64 8, ptr %7) #6
  ret ptr %18
}